; Function Attrs: mustprogress nounwind uwtable
define noundef i32 @_Z12gmx_truncateRKNSt10filesystem7__cxx114pathEl(ptr noundef nonnull align 8 dereferenceable(40) %0, i64 noundef %1) local_unnamed_addr #14 {
  %3 = alloca %"class.std::error_code", align 8
  call void @llvm.lifetime.start.p0(i64 16, ptr nonnull %3) #30
  store i32 0, ptr %3, align 8, !tbaa !21
  %4 = getelementptr inbounds nuw i8, ptr %3, i64 8
  %5 = tail call noundef nonnull align 8 dereferenceable(8) ptr @_ZNSt3_V215system_categoryEv() #34
  store ptr %5, ptr %4, align 8, !tbaa !24
  call void @_ZNSt10filesystem11resize_fileERKNS_7__cxx114pathEmRSt10error_code(ptr noundef nonnull align 8 dereferenceable(40) %0, i64 noundef %1, ptr noundef nonnull align 8 dereferenceable(16) %3) #30
  %6 = load i32, ptr %3, align 8, !tbaa !21
  call void @llvm.lifetime.end.p0(i64 16, ptr nonnull %3) #30
  ret i32 %6
}